target datalayout = "e-m:e-p270:32:32-p271:32:32-p272:64:64-i64:64-i128:128-f80:128-n8:16:32:64-S128"
target triple = "x86_64-pc-linux-gnu"

%struct.config_file_t = type { i8, i8, ptr, ptr, i32, ptr }

@.str.2 = private unnamed_addr constant [15 x i8] c"fetch_config.c\00", align 1
@.str.12 = private unnamed_addr constant [45 x i8] c"%s:%d: %s: safe_write (%zu of %d) failed: %m\00", align 1
@.str.13 = private unnamed_addr constant [48 x i8] c"%s:%d: %s: safe_write (%zu of %d) partial write\00", align 1
@.str.34 = private unnamed_addr constant [10 x i8] c"%s/%s.new\00", align 1
@.str.35 = private unnamed_addr constant [6 x i8] c"%s/%s\00", align 1
@.str.36 = private unnamed_addr constant [36 x i8] c"%s: could not open config file `%s`\00", align 1
@__func__._write_conf = private unnamed_addr constant [12 x i8] c"_write_conf\00", align 1
@.str.37 = private unnamed_addr constant [35 x i8] c"%s: error writing config to %s: %m\00", align 1

; Function Attrs: nounwind uwtable
define internal i32 @_write_conf(ptr noundef %0, ptr noundef %1, ptr noundef %2, i1 noundef zeroext %3, i1 noundef zeroext %4) #0 {
  %6 = alloca i32, align 4
  %7 = alloca ptr, align 8
  %8 = alloca ptr, align 8
  %9 = alloca ptr, align 8
  %10 = alloca i8, align 1
  %11 = alloca i8, align 1
  %12 = alloca ptr, align 8
  %13 = alloca ptr, align 8
  %14 = alloca i32, align 4
  %15 = alloca i32, align 4
  %16 = alloca i64, align 8
  %17 = alloca ptr, align 8
  %18 = alloca i32, align 4
  %19 = alloca i32, align 4
  store ptr %0, ptr %7, align 8
  store ptr %1, ptr %8, align 8
  store ptr %2, ptr %9, align 8
  %20 = zext i1 %3 to i8
  store i8 %20, ptr %10, align 1
  %21 = zext i1 %4 to i8
  store i8 %21, ptr %11, align 1
  call void @llvm.lifetime.start.p0(i64 8, ptr %12) #9
  store ptr null, ptr %12, align 8
  call void @llvm.lifetime.start.p0(i64 8, ptr %13) #9
  store ptr null, ptr %13, align 8
  call void @llvm.lifetime.start.p0(i64 4, ptr %14) #9
  store i32 -1, ptr %14, align 4
  call void @llvm.lifetime.start.p0(i64 4, ptr %15) #9
  %22 = load i8, ptr %11, align 1, !range !13, !noundef !14
  %23 = trunc i8 %22 to i1
  %24 = select i1 %23, i32 493, i32 420
  store i32 %24, ptr %15, align 4
  %25 = load ptr, ptr %7, align 8
  %26 = load ptr, ptr %8, align 8
  call void (ptr, ptr, ...) @_xstrfmtcat(ptr noundef %12, ptr noundef @.str.34, ptr noundef %25, ptr noundef %26)
  %27 = load ptr, ptr %7, align 8
  %28 = load ptr, ptr %8, align 8
  call void (ptr, ptr, ...) @_xstrfmtcat(ptr noundef %13, ptr noundef @.str.35, ptr noundef %27, ptr noundef %28)
  %29 = load i8, ptr %10, align 1, !range !13, !noundef !14
  %30 = trunc i8 %29 to i1
  br i1 %30, label %34, label %31

31:                                               ; preds = %5
  %32 = load ptr, ptr %13, align 8
  %33 = call i32 @unlink(ptr noundef %32) #9
  br label %128

34:                                               ; preds = %5
  %35 = load ptr, ptr %12, align 8
  %36 = load i32, ptr %15, align 4
  %37 = call i32 (ptr, i32, ...) @open(ptr noundef %35, i32 noundef 524865, i32 noundef %36)
  store i32 %37, ptr %14, align 4
  %38 = icmp slt i32 %37, 0
  br i1 %38, label %39, label %42

39:                                               ; preds = %34
  %40 = load ptr, ptr %12, align 8
  %41 = call i32 (ptr, ...) @error(ptr noundef @.str.36, ptr noundef @__func__._write_conf, ptr noundef %40)
  br label %129

42:                                               ; preds = %34
  %43 = load ptr, ptr %9, align 8
  %44 = icmp ne ptr %43, null
  br i1 %44, label %45, label %119

45:                                               ; preds = %42
  br label %46

46:                                               ; preds = %45
  call void @llvm.lifetime.start.p0(i64 8, ptr %16) #9
  %47 = load ptr, ptr %9, align 8
  %48 = call i64 @strlen(ptr noundef %47) #10
  store i64 %48, ptr %16, align 8
  call void @llvm.lifetime.start.p0(i64 8, ptr %17) #9
  %49 = load ptr, ptr %9, align 8
  store ptr %49, ptr %17, align 8
  call void @llvm.lifetime.start.p0(i64 4, ptr %18) #9
  br label %50

50:                                               ; preds = %112, %69, %46
  %51 = load i64, ptr %16, align 8
  %52 = icmp ugt i64 %51, 0
  br i1 %52, label %53, label %113

53:                                               ; preds = %50
  %54 = load i32, ptr %14, align 4
  %55 = load ptr, ptr %17, align 8
  %56 = load i64, ptr %16, align 8
  %57 = call i64 @write(i32 noundef %54, ptr noundef %55, i64 noundef %56)
  %58 = trunc i64 %57 to i32
  store i32 %58, ptr %18, align 4
  %59 = load i32, ptr %18, align 4
  %60 = icmp slt i32 %59, 0
  br i1 %60, label %61, label %85

61:                                               ; preds = %53
  %62 = call ptr @__errno_location() #12
  %63 = load i32, ptr %62, align 4
  %64 = icmp eq i32 %63, 11
  br i1 %64, label %69, label %65

65:                                               ; preds = %61
  %66 = call ptr @__errno_location() #12
  %67 = load i32, ptr %66, align 4
  %68 = icmp eq i32 %67, 4
  br i1 %68, label %69, label %70

69:                                               ; preds = %65, %61
  br label %50, !llvm.loop !19

70:                                               ; preds = %65
  br label %71

71:                                               ; preds = %70
  br label %72

72:                                               ; preds = %71
  %73 = call i32 @get_log_level()
  %74 = icmp sge i32 %73, 5
  br i1 %74, label %75, label %80

75:                                               ; preds = %72
  %76 = load i64, ptr %16, align 8
  %77 = load ptr, ptr %9, align 8
  %78 = call i64 @strlen(ptr noundef %77) #10
  %79 = trunc i64 %78 to i32
  call void (i32, ptr, ...) @log_var(i32 noundef 5, ptr noundef @.str.12, ptr noundef @.str.2, i32 noundef 425, ptr noundef @__func__._write_conf, i64 noundef %76, i32 noundef %79)
  br label %80

80:                                               ; preds = %75, %72
  br label %81

81:                                               ; preds = %80
  br label %82

82:                                               ; preds = %81
  br label %83

83:                                               ; preds = %82
  br label %84

84:                                               ; preds = %83
  store i32 3, ptr %19, align 4
  br label %114

85:                                               ; preds = %53
  %86 = load i32, ptr %18, align 4
  %87 = load ptr, ptr %17, align 8
  %88 = sext i32 %86 to i64
  %89 = getelementptr inbounds i8, ptr %87, i64 %88
  store ptr %89, ptr %17, align 8
  %90 = load i32, ptr %18, align 4
  %91 = sext i32 %90 to i64
  %92 = load i64, ptr %16, align 8
  %93 = sub i64 %92, %91
  store i64 %93, ptr %16, align 8
  %94 = load i64, ptr %16, align 8
  %95 = icmp ugt i64 %94, 0
  br i1 %95, label %96, label %111

96:                                               ; preds = %85
  br label %97

97:                                               ; preds = %96
  br label %98

98:                                               ; preds = %97
  %99 = call i32 @get_log_level()
  %100 = icmp sge i32 %99, 7
  br i1 %100, label %101, label %106

101:                                              ; preds = %98
  %102 = load i64, ptr %16, align 8
  %103 = load ptr, ptr %9, align 8
  %104 = call i64 @strlen(ptr noundef %103) #10
  %105 = trunc i64 %104 to i32
  call void (i32, ptr, ...) @log_var(i32 noundef 7, ptr noundef @.str.13, ptr noundef @.str.2, i32 noundef 425, ptr noundef @__func__._write_conf, i64 noundef %102, i32 noundef %105)
  br label %106

106:                                              ; preds = %101, %98
  br label %107

107:                                              ; preds = %106
  br label %108

108:                                              ; preds = %107
  br label %109

109:                                              ; preds = %108
  br label %110

110:                                              ; preds = %109
  br label %111

111:                                              ; preds = %110, %85
  br label %112

112:                                              ; preds = %111
  br label %50, !llvm.loop !19

113:                                              ; preds = %50
  store i32 0, ptr %19, align 4
  br label %114

114:                                              ; preds = %84, %113
  call void @llvm.lifetime.end.p0(i64 4, ptr %18) #9
  call void @llvm.lifetime.end.p0(i64 8, ptr %17) #9
  call void @llvm.lifetime.end.p0(i64 8, ptr %16) #9
  %115 = load i32, ptr %19, align 4
  switch i32 %115, label %138 [
    i32 0, label %116
    i32 3, label %129
  ]

116:                                              ; preds = %114
  br label %117

117:                                              ; preds = %116
  br label %118

118:                                              ; preds = %117
  br label %119

119:                                              ; preds = %118, %42
  %120 = load i32, ptr %14, align 4
  %121 = call i32 @close(i32 noundef %120)
  store i32 -1, ptr %14, align 4
  %122 = load ptr, ptr %12, align 8
  %123 = load ptr, ptr %13, align 8
  %124 = call i32 @rename(ptr noundef %122, ptr noundef %123) #9
  %125 = icmp ne i32 %124, 0
  br i1 %125, label %126, label %127

126:                                              ; preds = %119
  br label %129

127:                                              ; preds = %119
  br label %128

128:                                              ; preds = %127, %31
  call void @slurm_xfree(ptr noundef %12)
  call void @slurm_xfree(ptr noundef %13)
  store i32 0, ptr %6, align 4
  store i32 1, ptr %19, align 4
  br label %138

129:                                              ; preds = %114, %126, %39
  %130 = load ptr, ptr %12, align 8
  %131 = call i32 (ptr, ...) @error(ptr noundef @.str.37, ptr noundef @__func__._write_conf, ptr noundef %130)
  call void @slurm_xfree(ptr noundef %12)
  call void @slurm_xfree(ptr noundef %13)
  %132 = load i32, ptr %14, align 4
  %133 = icmp sge i32 %132, 0
  br i1 %133, label %134, label %137

134:                                              ; preds = %129
  %135 = load i32, ptr %14, align 4
  %136 = call i32 @close(i32 noundef %135)
  br label %137

137:                                              ; preds = %134, %129
  store i32 -1, ptr %6, align 4
  store i32 1, ptr %19, align 4
  br label %138

138:                                              ; preds = %137, %128, %114
  call void @llvm.lifetime.end.p0(i64 4, ptr %15) #9
  call void @llvm.lifetime.end.p0(i64 4, ptr %14) #9
  call void @llvm.lifetime.end.p0(i64 8, ptr %13) #9
  call void @llvm.lifetime.end.p0(i64 8, ptr %12) #9
  %139 = load i32, ptr %6, align 4
  ret i32 %139
}

; Function Attrs: nounwind uwtable
define dso_local i32 @write_one_config(ptr noundef %0, ptr noundef %1) #0 {
  %3 = alloca i32, align 4
  %4 = alloca ptr, align 8
  %5 = alloca ptr, align 8
  %6 = alloca ptr, align 8
  %7 = alloca ptr, align 8
  %8 = alloca i32, align 4
  store ptr %0, ptr %4, align 8
  store ptr %1, ptr %5, align 8
  call void @llvm.lifetime.start.p0(i64 8, ptr %6) #9
  %9 = load ptr, ptr %4, align 8
  store ptr %9, ptr %6, align 8
  call void @llvm.lifetime.start.p0(i64 8, ptr %7) #9
  %10 = load ptr, ptr %5, align 8
  store ptr %10, ptr %7, align 8
  %11 = load ptr, ptr %7, align 8
  %12 = load ptr, ptr %6, align 8
  %13 = getelementptr inbounds nuw %struct.config_file_t, ptr %12, i32 0, i32 2
  %14 = load ptr, ptr %13, align 8
  %15 = load ptr, ptr %6, align 8
  %16 = getelementptr inbounds nuw %struct.config_file_t, ptr %15, i32 0, i32 3
  %17 = load ptr, ptr %16, align 8
  %18 = load ptr, ptr %6, align 8
  %19 = getelementptr inbounds nuw %struct.config_file_t, ptr %18, i32 0, i32 0
  %20 = load i8, ptr %19, align 8, !range !13, !noundef !14
  %21 = trunc i8 %20 to i1
  %22 = load ptr, ptr %6, align 8
  %23 = getelementptr inbounds nuw %struct.config_file_t, ptr %22, i32 0, i32 1
  %24 = load i8, ptr %23, align 1, !range !13, !noundef !14
  %25 = trunc i8 %24 to i1
  %26 = call i32 @_write_conf(ptr noundef %11, ptr noundef %14, ptr noundef %17, i1 noundef zeroext %21, i1 noundef zeroext %25)
  %27 = icmp ne i32 %26, 0
  br i1 %27, label %28, label %29

28:                                               ; preds = %2
  store i32 -1, ptr %3, align 4
  store i32 1, ptr %8, align 4
  br label %30

29:                                               ; preds = %2
  store i32 0, ptr %3, align 4
  store i32 1, ptr %8, align 4
  br label %30

30:                                               ; preds = %29, %28
  call void @llvm.lifetime.end.p0(i64 8, ptr %7) #9
  call void @llvm.lifetime.end.p0(i64 8, ptr %6) #9
  %31 = load i32, ptr %3, align 4
  ret i32 %31
}