; Function Attrs: nounwind uwtable
define dso_local range(i32 -1, 1) i32 @write_one_config(ptr noundef readonly captures(none) %0, ptr noundef %1) #0 {
  %3 = alloca ptr, align 8
  %4 = alloca ptr, align 8
  %5 = getelementptr inbounds nuw i8, ptr %0, i64 8
  %6 = load ptr, ptr %5, align 8
  %7 = getelementptr inbounds nuw i8, ptr %0, i64 16
  %8 = load ptr, ptr %7, align 8
  %9 = load i8, ptr %0, align 8, !range !13, !noundef !14
  %10 = trunc nuw i8 %9 to i1
  %11 = getelementptr inbounds nuw i8, ptr %0, i64 1
  %12 = load i8, ptr %11, align 1, !range !13, !noundef !14
  call void @llvm.lifetime.start.p0(i64 8, ptr nonnull %3) #12
  store ptr null, ptr %3, align 8
  call void @llvm.lifetime.start.p0(i64 8, ptr nonnull %4) #12
  store ptr null, ptr %4, align 8
  call void (ptr, ptr, ...) @_xstrfmtcat(ptr noundef nonnull %3, ptr noundef nonnull @.str.34, ptr noundef %1, ptr noundef %6) #12
  call void (ptr, ptr, ...) @_xstrfmtcat(ptr noundef nonnull %4, ptr noundef nonnull @.str.35, ptr noundef %1, ptr noundef %6) #12
  br i1 %10, label %16, label %13

13:                                               ; preds = %2
  %14 = load ptr, ptr %4, align 8
  %15 = call i32 @unlink(ptr noundef %14) #12
  br label %59

16:                                               ; preds = %2
  %17 = trunc nuw i8 %12 to i1
  %18 = select i1 %17, i32 493, i32 420
  %19 = load ptr, ptr %3, align 8
  %20 = call i32 (ptr, i32, ...) @open(ptr noundef %19, i32 noundef 524865, i32 noundef %18) #12
  %21 = icmp slt i32 %20, 0
  br i1 %21, label %22, label %25

22:                                               ; preds = %16
  %23 = load ptr, ptr %3, align 8
  %24 = call i32 (ptr, ...) @error(ptr noundef nonnull @.str.36, ptr noundef nonnull @__func__._write_conf, ptr noundef %23) #12
  br label %.thread.i

25:                                               ; preds = %16
  %.not.i = icmp eq ptr %8, null
  br i1 %.not.i, label %.loopexit.i, label %26

26:                                               ; preds = %25
  %27 = call i64 @strlen(ptr noundef nonnull readonly dereferenceable(1) %8) #13
  %.not3752.i = icmp eq i64 %27, 0
  br i1 %.not3752.i, label %.loopexit.i, label %.lr.ph.split.i

.lr.ph.split.i:                                   ; preds = %26, %.lr.ph.split.i.backedge
  %.029.ph55.i = phi ptr [ %42, %.lr.ph.split.i.backedge ], [ %8, %26 ]
  %.030.ph53.i = phi i64 [ %43, %.lr.ph.split.i.backedge ], [ %27, %26 ]
  %28 = call i64 @write(i32 noundef %20, ptr noundef %.029.ph55.i, i64 noundef %.030.ph53.i) #12
  %29 = and i64 %28, 2147483648
  %.not3850.i = icmp eq i64 %29, 0
  br i1 %.not3850.i, label %.split.us.i, label %.lr.ph51.i

.lr.ph51.i:                                       ; preds = %.lr.ph.split.i
  %30 = tail call ptr @__errno_location() #14
  br label %31

31:                                               ; preds = %33, %.lr.ph51.i
  %32 = load i32, ptr %30, align 4
  switch i32 %32, label %.split45.us.i [
    i32 11, label %33
    i32 4, label %33
  ]

33:                                               ; preds = %31, %31
  %34 = call i64 @write(i32 noundef %20, ptr noundef %.029.ph55.i, i64 noundef %.030.ph53.i) #12
  %35 = and i64 %34, 2147483648
  %.not38.i = icmp eq i64 %35, 0
  br i1 %.not38.i, label %.split.us.i, label %31

.split45.us.i:                                    ; preds = %31
  %36 = call i32 @get_log_level() #12
  %37 = icmp sgt i32 %36, 4
  br i1 %37, label %38, label %.thread.i

38:                                               ; preds = %.split45.us.i
  %39 = call i64 @strlen(ptr noundef nonnull readonly dereferenceable(1) %8) #13
  %40 = trunc i64 %39 to i32
  call void (i32, ptr, ...) @log_var(i32 noundef 5, ptr noundef nonnull @.str.12, ptr noundef nonnull @.str.2, i32 noundef 425, ptr noundef nonnull @__func__._write_conf, i64 noundef %.030.ph53.i, i32 noundef %40) #12
  br label %.thread.i

.split.us.i:                                      ; preds = %33, %.lr.ph.split.i
  %.us-phi.i = phi i64 [ %28, %.lr.ph.split.i ], [ %34, %33 ]
  %41 = and i64 %.us-phi.i, 2147483647
  %42 = getelementptr inbounds nuw i8, ptr %.029.ph55.i, i64 %41
  %43 = sub i64 %.030.ph53.i, %41
  %.not39.i = icmp eq i64 %43, 0
  br i1 %.not39.i, label %.loopexit.i, label %44

44:                                               ; preds = %.split.us.i
  %45 = call i32 @get_log_level() #12
  %46 = icmp sgt i32 %45, 6
  br i1 %46, label %47, label %.lr.ph.split.i.backedge

47:                                               ; preds = %44
  %48 = call i64 @strlen(ptr noundef nonnull readonly dereferenceable(1) %8) #13
  %49 = trunc i64 %48 to i32
  call void (i32, ptr, ...) @log_var(i32 noundef 7, ptr noundef nonnull @.str.13, ptr noundef nonnull @.str.2, i32 noundef 425, ptr noundef nonnull @__func__._write_conf, i64 noundef %43, i32 noundef %49) #12
  br label %.lr.ph.split.i.backedge

.lr.ph.split.i.backedge:                          ; preds = %47, %44
  br label %.lr.ph.split.i, !llvm.loop !19

.loopexit.i:                                      ; preds = %.split.us.i, %26, %25
  %50 = call i32 @close(i32 noundef %20) #12
  %51 = load ptr, ptr %3, align 8
  %52 = load ptr, ptr %4, align 8
  %53 = call i32 @rename(ptr noundef %51, ptr noundef %52) #12
  %.not40.i = icmp eq i32 %53, 0
  br i1 %.not40.i, label %59, label %.thread.i

.thread.i:                                        ; preds = %.loopexit.i, %38, %.split45.us.i, %22
  %.031.i = phi i32 [ %20, %22 ], [ -1, %.loopexit.i ], [ %20, %38 ], [ %20, %.split45.us.i ]
  %54 = load ptr, ptr %3, align 8
  %55 = call i32 (ptr, ...) @error(ptr noundef nonnull @.str.37, ptr noundef nonnull @__func__._write_conf, ptr noundef %54) #12
  call void @slurm_xfree(ptr noundef nonnull %3) #12
  call void @slurm_xfree(ptr noundef nonnull %4) #12
  %56 = icmp sgt i32 %.031.i, -1
  br i1 %56, label %57, label %_write_conf.exit.thread

57:                                               ; preds = %.thread.i
  %58 = call i32 @close(i32 noundef %.031.i) #12
  br label %_write_conf.exit.thread

59:                                               ; preds = %.loopexit.i, %13
  call void @slurm_xfree(ptr noundef nonnull %3) #12
  call void @slurm_xfree(ptr noundef nonnull %4) #12
  br label %_write_conf.exit.thread

_write_conf.exit.thread:                          ; preds = %.thread.i, %57, %59
  %60 = phi i32 [ 0, %59 ], [ -1, %57 ], [ -1, %.thread.i ]
  call void @llvm.lifetime.end.p0(i64 8, ptr nonnull %4) #12
  call void @llvm.lifetime.end.p0(i64 8, ptr nonnull %3) #12
  ret i32 %60
}